target datalayout = "e-m:e-p270:32:32-p271:32:32-p272:64:64-i64:64-i128:128-f80:128-n8:16:32:64-S128"
target triple = "x86_64-unknown-linux-gnu"

%"class.std::vector" = type { %"struct.std::_Vector_base" }
%"struct.std::_Vector_base" = type { %"struct.std::_Vector_base<double, std::allocator<double>>::_Vector_impl" }
%"struct.std::_Vector_base<double, std::allocator<double>>::_Vector_impl" = type { %"struct.std::_Vector_base<double, std::allocator<double>>::_Vector_impl_data" }
%"struct.std::_Vector_base<double, std::allocator<double>>::_Vector_impl_data" = type { ptr, ptr, ptr }
%"class.QuantLib::EvolutionDescription" = type { i64, %"class.std::vector", %"class.std::vector", %"class.std::vector.0", %"class.std::vector", %"class.std::vector.5" }
%"class.std::vector.0" = type { %"struct.std::_Vector_base.1" }
%"struct.std::_Vector_base.1" = type { %"struct.std::_Vector_base<std::pair<unsigned long, unsigned long>, std::allocator<std::pair<unsigned long, unsigned long>>>::_Vector_impl" }
%"struct.std::_Vector_base<std::pair<unsigned long, unsigned long>, std::allocator<std::pair<unsigned long, unsigned long>>>::_Vector_impl" = type { %"struct.std::_Vector_base<std::pair<unsigned long, unsigned long>, std::allocator<std::pair<unsigned long, unsigned long>>>::_Vector_impl_data" }
%"struct.std::_Vector_base<std::pair<unsigned long, unsigned long>, std::allocator<std::pair<unsigned long, unsigned long>>>::_Vector_impl_data" = type { ptr, ptr, ptr }
%"class.std::vector.5" = type { %"struct.std::_Vector_base.6" }
%"struct.std::_Vector_base.6" = type { %"struct.std::_Vector_base<unsigned long, std::allocator<unsigned long>>::_Vector_impl" }
%"struct.std::_Vector_base<unsigned long, std::allocator<unsigned long>>::_Vector_impl" = type { %"struct.std::_Vector_base<unsigned long, std::allocator<unsigned long>>::_Vector_impl_data" }
%"struct.std::_Vector_base<unsigned long, std::allocator<unsigned long>>::_Vector_impl_data" = type { ptr, ptr, ptr }
%"class.std::valarray" = type { i64, ptr }
%"class.QuantLib::NothingExerciseValue" = type { %"class.QuantLib::MarketModelExerciseValue", i64, %"class.std::vector", %"class.std::valarray", %"class.QuantLib::EvolutionDescription", i64, %"struct.QuantLib::MarketModelMultiProduct::CashFlow" }
%"class.QuantLib::MarketModelExerciseValue" = type { ptr }
%"struct.QuantLib::MarketModelMultiProduct::CashFlow" = type { i64, double }

; Function Attrs: mustprogress nounwind uwtable
define void @_ZN8QuantLib20NothingExerciseValue8nextStepERKNS_10CurveStateE(ptr noundef nonnull align 8 dereferenceable(208) %this, ptr noundef nonnull align 1 %0) unnamed_addr #2 align 2 {
entry:
  %this.addr = alloca ptr, align 8
  %.addr = alloca ptr, align 8
  store ptr %this, ptr %this.addr, align 8, !tbaa !3
  store ptr %0, ptr %.addr, align 8, !tbaa !3
  %this1 = load ptr, ptr %this.addr, align 8
  %currentIndex_ = getelementptr inbounds nuw %"class.QuantLib::NothingExerciseValue", ptr %this1, i32 0, i32 5
  %1 = load i64, ptr %currentIndex_, align 8, !tbaa !9
  %cf_ = getelementptr inbounds nuw %"class.QuantLib::NothingExerciseValue", ptr %this1, i32 0, i32 6
  %timeIndex = getelementptr inbounds nuw %"struct.QuantLib::MarketModelMultiProduct::CashFlow", ptr %cf_, i32 0, i32 0
  store i64 %1, ptr %timeIndex, align 8, !tbaa !45
  %currentIndex_2 = getelementptr inbounds nuw %"class.QuantLib::NothingExerciseValue", ptr %this1, i32 0, i32 5
  %2 = load i64, ptr %currentIndex_2, align 8, !tbaa !9
  %inc = add i64 %2, 1
  store i64 %inc, ptr %currentIndex_2, align 8, !tbaa !9
  ret void
}