; Function Attrs: mustprogress nofree norecurse nosync nounwind willreturn memory(argmem: readwrite) uwtable
define void @_ZN8QuantLib20NothingExerciseValue8nextStepERKNS_10CurveStateE(ptr nocapture noundef nonnull align 8 dereferenceable(208) %this, ptr nocapture nonnull readnone align 1 %0) unnamed_addr #10 align 2 {
entry:
  %currentIndex_ = getelementptr inbounds nuw i8, ptr %this, i64 184
  %1 = load i64, ptr %currentIndex_, align 8, !tbaa !58
  %cf_ = getelementptr inbounds nuw i8, ptr %this, i64 192
  store i64 %1, ptr %cf_, align 8, !tbaa !59
  %inc = add i64 %1, 1
  store i64 %inc, ptr %currentIndex_, align 8, !tbaa !58
  ret void
}